target datalayout = "e-m:e-p270:32:32-p271:32:32-p272:64:64-i64:64-i128:128-f80:128-n8:16:32:64-S128"
target triple = "x86_64-pc-linux-gnu"

%struct.ECPGtype = type { i32, ptr, ptr, ptr, %union.anon, i32 }
%union.anon = type { ptr }
%struct.ECPGstruct_member = type { ptr, ptr, ptr }

@.str.5 = private unnamed_addr constant [45 x i8] c"indicator variable must have an integer type\00", align 1

; Function Attrs: nounwind uwtable
define dso_local void @check_indicator(ptr noundef %0) #0 {
  %2 = alloca ptr, align 8
  %3 = alloca ptr, align 8
  store ptr %0, ptr %2, align 8
  %4 = load ptr, ptr %2, align 8
  %5 = getelementptr inbounds nuw %struct.ECPGtype, ptr %4, i32 0, i32 0
  %6 = load i32, ptr %5, align 8
  switch i32 %6, label %28 [
    i32 3, label %7
    i32 5, label %7
    i32 7, label %7
    i32 9, label %7
    i32 4, label %7
    i32 6, label %7
    i32 8, label %7
    i32 10, label %7
    i32 22, label %8
    i32 23, label %8
    i32 21, label %24
  ]

7:                                                ; preds = %1, %1, %1, %1, %1, %1, %1, %1
  br label %29

8:                                                ; preds = %1, %1
  %9 = load ptr, ptr %2, align 8
  %10 = getelementptr inbounds nuw %struct.ECPGtype, ptr %9, i32 0, i32 4
  %11 = load ptr, ptr %10, align 8
  store ptr %11, ptr %3, align 8
  br label %12

12:                                               ; preds = %19, %8
  %13 = load ptr, ptr %3, align 8
  %14 = icmp ne ptr %13, null
  br i1 %14, label %15, label %23

15:                                               ; preds = %12
  %16 = load ptr, ptr %3, align 8
  %17 = getelementptr inbounds nuw %struct.ECPGstruct_member, ptr %16, i32 0, i32 1
  %18 = load ptr, ptr %17, align 8
  call void @check_indicator(ptr noundef %18)
  br label %19

19:                                               ; preds = %15
  %20 = load ptr, ptr %3, align 8
  %21 = getelementptr inbounds nuw %struct.ECPGstruct_member, ptr %20, i32 0, i32 2
  %22 = load ptr, ptr %21, align 8
  store ptr %22, ptr %3, align 8
  br label %12, !llvm.loop !18

23:                                               ; preds = %12
  br label %29

24:                                               ; preds = %1
  %25 = load ptr, ptr %2, align 8
  %26 = getelementptr inbounds nuw %struct.ECPGtype, ptr %25, i32 0, i32 4
  %27 = load ptr, ptr %26, align 8
  call void @check_indicator(ptr noundef %27)
  br label %29

28:                                               ; preds = %1
  call void (i32, i32, ptr, ...) @mmerror(i32 noundef 3, i32 noundef 1, ptr noundef @.str.5)
  br label %29

29:                                               ; preds = %28, %24, %23, %7
  ret void
}