; Function Attrs: nounwind uwtable
define dso_local void @check_indicator(ptr noundef readonly captures(none) %0) local_unnamed_addr #0 {
  br label %tailrecurse

tailrecurse:                                      ; preds = %8, %1
  %.tr = phi ptr [ %0, %1 ], [ %10, %8 ]
  %2 = load i32, ptr %.tr, align 8
  switch i32 %2, label %11 [
    i32 3, label %.loopexit
    i32 5, label %.loopexit
    i32 7, label %.loopexit
    i32 9, label %.loopexit
    i32 4, label %.loopexit
    i32 6, label %.loopexit
    i32 8, label %.loopexit
    i32 10, label %.loopexit
    i32 22, label %3
    i32 23, label %3
    i32 21, label %8
  ]

3:                                                ; preds = %tailrecurse, %tailrecurse
  %4 = getelementptr inbounds nuw i8, ptr %.tr, i64 32
  %.09 = load ptr, ptr %4, align 8
  %.not10 = icmp eq ptr %.09, null
  br i1 %.not10, label %.loopexit, label %.lr.ph

.lr.ph:                                           ; preds = %3, %.lr.ph
  %.011 = phi ptr [ %.0, %.lr.ph ], [ %.09, %3 ]
  %5 = getelementptr inbounds nuw i8, ptr %.011, i64 8
  %6 = load ptr, ptr %5, align 8
  tail call void @check_indicator(ptr noundef %6)
  %7 = getelementptr inbounds nuw i8, ptr %.011, i64 16
  %.0 = load ptr, ptr %7, align 8
  %.not = icmp eq ptr %.0, null
  br i1 %.not, label %.loopexit, label %.lr.ph, !llvm.loop !16

8:                                                ; preds = %tailrecurse
  %9 = getelementptr inbounds nuw i8, ptr %.tr, i64 32
  %10 = load ptr, ptr %9, align 8
  br label %tailrecurse

11:                                               ; preds = %tailrecurse
  tail call void (i32, i32, ptr, ...) @mmerror(i32 noundef 3, i32 noundef 1, ptr noundef nonnull @.str.5) #6
  br label %.loopexit

.loopexit:                                        ; preds = %tailrecurse, %tailrecurse, %tailrecurse, %tailrecurse, %tailrecurse, %tailrecurse, %tailrecurse, %tailrecurse, %.lr.ph, %3, %11
  ret void
}